target datalayout = "e-m:e-p270:32:32-p271:32:32-p272:64:64-i64:64-i128:128-f80:128-n8:16:32:64-S128"
target triple = "x86_64-pc-linux-gnu"

%struct.H5D_chk_idx_info_t = type { ptr, ptr, ptr, ptr }
%struct.H5O_storage_chunk_t = type { i32, i64, ptr, %union.anon }
%union.anon = type { %struct.H5O_storage_chunk_btree_t }
%struct.H5O_storage_chunk_btree_t = type { i64, ptr }
%struct.H5O_storage_chunk_bt2_t = type { i64, ptr }
%struct.H5O_loc_t = type { ptr, i64, i8 }

@.str.2 = private unnamed_addr constant [103 x i8] c"generated/home/dtcxzyw/WorkSpace/Projects/compilers/llvm-opt-benchmark/bench/hdf5/hdf5/src/H5Dbtree2.c\00", align 1
@H5E_DATASET_g = external global i64, align 8
@H5E_CANTGET_g = external global i64, align 8
@H5E_CANTDEPEND_g = external global i64, align 8
@__func__.H5D__btree2_idx_depend = private unnamed_addr constant [23 x i8] c"H5D__btree2_idx_depend\00", align 1
@H5E_CANTPROTECT_g = external global i64, align 8
@.str.22 = private unnamed_addr constant [32 x i8] c"unable to protect object header\00", align 1
@.str.23 = private unnamed_addr constant [42 x i8] c"unable to get dataset object header proxy\00", align 1
@.str.24 = private unnamed_addr constant [57 x i8] c"unable to create flush dependency on object header proxy\00", align 1
@H5E_CANTUNPROTECT_g = external global i64, align 8
@.str.25 = private unnamed_addr constant [32 x i8] c"unable to release object header\00", align 1

; Function Attrs: nounwind uwtable
define internal i32 @H5D__btree2_idx_depend(ptr noundef %0) #0 {
  %2 = alloca ptr, align 8
  %3 = alloca ptr, align 8
  %4 = alloca %struct.H5O_loc_t, align 8
  %5 = alloca ptr, align 8
  %6 = alloca i32, align 4
  %7 = alloca i8, align 1
  store ptr %0, ptr %2, align 8
  store ptr null, ptr %3, align 8
  store i32 0, ptr %6, align 4
  store i8 0, ptr %7, align 1
  %8 = call i32 @H5O_loc_reset(ptr noundef %4)
  %9 = load ptr, ptr %2, align 8
  %10 = getelementptr inbounds %struct.H5D_chk_idx_info_t, ptr %9, i32 0, i32 0
  %11 = load ptr, ptr %10, align 8
  %12 = getelementptr inbounds %struct.H5O_loc_t, ptr %4, i32 0, i32 0
  store ptr %11, ptr %12, align 8
  %13 = load ptr, ptr %2, align 8
  %14 = getelementptr inbounds %struct.H5D_chk_idx_info_t, ptr %13, i32 0, i32 3
  %15 = load ptr, ptr %14, align 8
  %16 = getelementptr inbounds %struct.H5O_storage_chunk_t, ptr %15, i32 0, i32 3
  %17 = getelementptr inbounds %struct.H5O_storage_chunk_btree_t, ptr %16, i32 0, i32 0
  %18 = load i64, ptr %17, align 8
  %19 = getelementptr inbounds %struct.H5O_loc_t, ptr %4, i32 0, i32 1
  store i64 %18, ptr %19, align 8
  %20 = call ptr @H5O_protect(ptr noundef %4, i32 noundef 128, i1 noundef zeroext true)
  store ptr %20, ptr %3, align 8
  %21 = icmp eq ptr null, %20
  br i1 %21, label %22, label %37

22:                                               ; preds = %1
  br label %23

23:                                               ; preds = %22
  br label %24

24:                                               ; preds = %23
  br label %25

25:                                               ; preds = %24
  %26 = load i64, ptr @H5E_DATASET_g, align 8
  %27 = load i64, ptr @H5E_CANTPROTECT_g, align 8
  %28 = call i32 (ptr, ptr, i32, i64, i64, ptr, ...) @H5E_printf_stack(ptr noundef @.str.2, ptr noundef @__func__.H5D__btree2_idx_depend, i32 noundef 621, i64 noundef %26, i64 noundef %27, ptr noundef @.str.22)
  br label %29

29:                                               ; preds = %25
  store i8 1, ptr %7, align 1
  %30 = load i8, ptr %7, align 1
  %31 = trunc i8 %30 to i1
  %32 = zext i1 %31 to i8
  store i8 %32, ptr %7, align 1
  br label %33

33:                                               ; preds = %29
  br label %34

34:                                               ; preds = %33
  store i32 -1, ptr %6, align 4
  br label %82

35:                                               ; No predecessors!
  br label %36

36:                                               ; preds = %35
  br label %37

37:                                               ; preds = %36, %1
  %38 = load ptr, ptr %3, align 8
  %39 = call ptr @H5O_get_proxy(ptr noundef %38)
  store ptr %39, ptr %5, align 8
  %40 = icmp eq ptr null, %39
  br i1 %40, label %41, label %56

41:                                               ; preds = %37
  br label %42

42:                                               ; preds = %41
  br label %43

43:                                               ; preds = %42
  br label %44

44:                                               ; preds = %43
  %45 = load i64, ptr @H5E_DATASET_g, align 8
  %46 = load i64, ptr @H5E_CANTGET_g, align 8
  %47 = call i32 (ptr, ptr, i32, i64, i64, ptr, ...) @H5E_printf_stack(ptr noundef @.str.2, ptr noundef @__func__.H5D__btree2_idx_depend, i32 noundef 625, i64 noundef %45, i64 noundef %46, ptr noundef @.str.23)
  br label %48

48:                                               ; preds = %44
  store i8 1, ptr %7, align 1
  %49 = load i8, ptr %7, align 1
  %50 = trunc i8 %49 to i1
  %51 = zext i1 %50 to i8
  store i8 %51, ptr %7, align 1
  br label %52

52:                                               ; preds = %48
  br label %53

53:                                               ; preds = %52
  store i32 -1, ptr %6, align 4
  br label %82

54:                                               ; No predecessors!
  br label %55

55:                                               ; preds = %54
  br label %56

56:                                               ; preds = %55, %37
  %57 = load ptr, ptr %2, align 8
  %58 = getelementptr inbounds %struct.H5D_chk_idx_info_t, ptr %57, i32 0, i32 3
  %59 = load ptr, ptr %58, align 8
  %60 = getelementptr inbounds %struct.H5O_storage_chunk_t, ptr %59, i32 0, i32 3
  %61 = getelementptr inbounds %struct.H5O_storage_chunk_bt2_t, ptr %60, i32 0, i32 1
  %62 = load ptr, ptr %61, align 8
  %63 = load ptr, ptr %5, align 8
  %64 = call i32 @H5B2_depend(ptr noundef %62, ptr noundef %63)
  %65 = icmp slt i32 %64, 0
  br i1 %65, label %66, label %81

66:                                               ; preds = %56
  br label %67

67:                                               ; preds = %66
  br label %68

68:                                               ; preds = %67
  br label %69

69:                                               ; preds = %68
  %70 = load i64, ptr @H5E_DATASET_g, align 8
  %71 = load i64, ptr @H5E_CANTDEPEND_g, align 8
  %72 = call i32 (ptr, ptr, i32, i64, i64, ptr, ...) @H5E_printf_stack(ptr noundef @.str.2, ptr noundef @__func__.H5D__btree2_idx_depend, i32 noundef 630, i64 noundef %70, i64 noundef %71, ptr noundef @.str.24)
  br label %73

73:                                               ; preds = %69
  store i8 1, ptr %7, align 1
  %74 = load i8, ptr %7, align 1
  %75 = trunc i8 %74 to i1
  %76 = zext i1 %75 to i8
  store i8 %76, ptr %7, align 1
  br label %77

77:                                               ; preds = %73
  br label %78

78:                                               ; preds = %77
  store i32 -1, ptr %6, align 4
  br label %82

79:                                               ; No predecessors!
  br label %80

80:                                               ; preds = %79
  br label %81

81:                                               ; preds = %80, %56
  br label %82

82:                                               ; preds = %81, %78, %53, %34
  %83 = load ptr, ptr %3, align 8
  %84 = icmp ne ptr %83, null
  br i1 %84, label %85, label %102

85:                                               ; preds = %82
  %86 = load ptr, ptr %3, align 8
  %87 = call i32 @H5O_unprotect(ptr noundef %4, ptr noundef %86, i32 noundef 0)
  %88 = icmp slt i32 %87, 0
  br i1 %88, label %89, label %102

89:                                               ; preds = %85
  br label %90

90:                                               ; preds = %89
  br label %91

91:                                               ; preds = %90
  br label %92

92:                                               ; preds = %91
  %93 = load i64, ptr @H5E_DATASET_g, align 8
  %94 = load i64, ptr @H5E_CANTUNPROTECT_g, align 8
  %95 = call i32 (ptr, ptr, i32, i64, i64, ptr, ...) @H5E_printf_stack(ptr noundef @.str.2, ptr noundef @__func__.H5D__btree2_idx_depend, i32 noundef 635, i64 noundef %93, i64 noundef %94, ptr noundef @.str.25)
  br label %96

96:                                               ; preds = %92
  store i8 1, ptr %7, align 1
  %97 = load i8, ptr %7, align 1
  %98 = trunc i8 %97 to i1
  %99 = zext i1 %98 to i8
  store i8 %99, ptr %7, align 1
  br label %100

100:                                              ; preds = %96
  store i32 -1, ptr %6, align 4
  br label %101

101:                                              ; preds = %100
  br label %102

102:                                              ; preds = %101, %85, %82
  %103 = load i32, ptr %6, align 4
  ret i32 %103
}